ccopy_reg
_reconstructor
p1
(cpyh
table
p2
c__builtin__
list
p3
(lp4
g1
(cpyh
tr
p5
g3
(lp6
g1
(cpyh
Tag
p7
g3
(lp8
g1
(cpyh
td
p9
g3
(lp10
S'\xe7\x94\xa8\xe4\xbe\x8b\xe7\xbb\x84ID'
p11
atRp12
(dp13
S'isSeq'
p14
I00
sS'attributes'
p15
(dp16
S'width'
p17
S'5%'
p18
sS'align'
p19
S'right'
p20
ssS'content'
p21
g11
sS'id'
p22
S'td'
p23
sS'indentlvl'
p24
I0
sbag1
(g9
g3
(lp25
S'\xe6\xb5\x8b\xe8\xaf\x95\xe7\x94\xa8\xe4\xbe\x8b\xe7\xbb\x84\xe5\x90\x8d\xe7\xa7\xb0'
p26
atRp27
(dp28
g14
I00
sg15
(dp29
g17
S'35%'
p30
sg19
S'left'
p31
ssg21
g26
sg22
S'td_001'
p32
sg24
I0
sbag1
(g9
g3
(lp33
S'\xe6\xb5\x8b\xe8\xaf\x95\xe6\x80\xbb\xe6\x95\xb0'
p34
atRp35
(dp36
g14
I00
sg15
(dp37
g17
S'10%'
p38
sg19
g31
ssg21
g34
sg22
S'td_002'
p39
sg24
I0
sbag1
(g9
g3
(lp40
S'\xe6\x88\x90\xe5\x8a\x9f'
p41
atRp42
(dp43
g14
I00
sg15
(dp44
g17
g38
sg19
g31
ssg21
g41
sg22
S'td_003'
p45
sg24
I0
sbag1
(g9
g3
(lp46
S'\xe5\xa4\xb1\xe8\xb4\xa5'
p47
atRp48
(dp49
g14
I00
sg15
(dp50
g17
g38
sg19
g31
ssg21
g47
sg22
S'td_004'
p51
sg24
I0
sbag1
(g9
g3
(lp52
S'\xe6\x89\xa7\xe8\xa1\x8c\xe8\xae\xb0\xe5\xbd\x95'
p53
atRp54
(dp55
g14
I00
sg15
(dp56
g17
g38
sg19
g31
ssg21
g53
sg22
S'td_005'
p57
sg24
I0
sbatRp58
(dp59
g24
I0
sg22
S'sequence'
p60
sg45
g42
sg39
g35
sg14
I01
sg15
(dp61
sg23
g12
sg32
g27
sg57
g54
sg51
g48
sbatRp62
(dp63
g14
I00
sg15
(dp64
g22
S'header_row'
p65
ssg60
g58
sg22
g65
sg24
I0
sbatRp66
(dp67
g14
I00
sg15
(dp68
S'body'
p69
(dp70
g17
S'80%'
p71
sS'margin'
p72
S'auto'
p73
ssS'cl'
p74
S'table'
p75
ssg65
g62
sg22
g75
sg24
I0
sb.